(dp0
S'outlining'
p1
F1.0
sS'coach'
p2
F0.08771929824561403
sS'deskcall'
p3
F0.03508771929824561
sS'#understood'
p4
F2.0
sS'people'
p5
F0.9122807017543859
sS'gz'
p6
F4.0
sS'yellow'
p7
F0.9122807017543859
sS'month'
p8
F2.9649122807017543
sS'manager'
p9
F0.07017543859649122
sS'comments'
p10
F0.38596491228070173
sS'#beginning'
p11
F2.0
sS'mailed'
p12
F1.0526315789473684
sS'follow'
p13
F1.368421052631579
sS'15,000'
p14
F0.3333333333333333
sS':1'
p15
F0.8596491228070176
sS'apartment'
p16
F0.43859649122807015
sS'tx'
p17
F0.5263157894736842
sS'e-mail'
p18
F2.3333333333333335
sS'ts'
p19
F0.07017543859649122
sS'send'
p20
F2.5964912280701755
sS'trueuseprevsequences'
p21
F2.0
sS'0'
p22
F4.0
sS'critical'
p23
F1.0
sS'alberto'
p24
F0.6842105263157895
sS'h.r.'
p25
F1.0
sS'sent'
p26
F1.0701754385964912
sS'me'
p27
F0.6842105263157895
sS'fax'
p28
F1.0
sS'eb3270'
p29
F1.0
sS'packageon'
p30
F0.10526315789473684
sS'cicchetti_115'
p31
F1.0
sS'amplease'
p32
F0.17543859649122806
sS'choice'
p33
F0.7017543859649122
sS'prudency'
p34
F0.9824561403508771
sS'updates'
p35
F0.543859649122807
sS'decide'
p36
F0.017543859649122806
sS'fall'
p37
F0.2982456140350877
sS'mick'
p38
F0.05263157894736842
sS'corp.'
p39
F0.6140350877192983
sS'entire'
p40
F0.10526315789473684
sS'school'
p41
F0.43859649122807015
sS'level'
p42
F0.10526315789473684
sS'did'
p43
F1.3508771929824561
sS'positions'
p44
F1.0
sS'list'
p45
F1.9298245614035088
sS'fewer'
p46
F0.8596491228070176
sS'occurs'
p47
F1.0
sS'try'
p48
F3.754385964912281
sS'PERSON'
p49
F118.45614035087719
sS'adjust'
p50
F0.543859649122807
sS'team'
p51
F0.2807017543859649
sS'small'
p52
F0.017543859649122806
sS'http:\\/\\/www.hotmail.com.share'
p53
F0.6491228070175439
sS'the'
p54
F5.543859649122807
sS'gzips'
p55
F2.0
sS'andothers'
p56
F1.0
sS'says'
p57
F0.10526315789473684
sS'rents'
p58
F1.105263157894737
sS'trueusetypeseqs2'
p59
F2.0
sS'paso'
p60
F0.5614035087719298
sS'sign'
p61
F1.0
sS'past'
p62
F1.0
sS'llc'
p63
F0.10526315789473684
sS'likely'
p64
F0.10526315789473684
sS'3-0643'
p65
F2.0
sS'pass'
p66
F1.0
sS'link'
p67
F0.45614035087719296
sS'estimated'
p68
F1.0
sS'click'
p69
F1.543859649122807
sS'hourly'
p70
F0.42105263157894735
sS'what'
p71
F4.964912280701754
sS'richter_245'
p72
F1.0
sS'rockies'
p73
F0.3333333333333333
sS'access'
p74
F2.1228070175438596
sS'public'
p75
F0.6491228070175439
sS'06:06:28'
p76
F0.6666666666666666
sS'rd.'
p77
F0.5263157894736842
sS'ferrell_169'
p78
F1.0
sS'1406'
p79
F0.8596491228070176
sS'deborah'
p80
F0.3684210526315789
sS'subdivided'
p81
F1.0
sS'million'
p82
F0.8771929824561403
sS'duplexes'
p83
F0.10526315789473684
sS'christi'
p84
F0.14035087719298245
sS'multifamily'
p85
F0.10526315789473684
sS'questions\\/conflicts'
p86
F1.736842105263158
sS'allen_stephanie'
p87
F1.0
sS'here'
p88
F2.3859649122807016
sS'hours'
p89
F0.543859649122807
sS'hehub-chicago-pepl-katy'
p90
F0.5087719298245614
sS'let'
p91
F4.912280701754386
sS'address'
p92
F1.2982456140350878
sS'moore_123'
p93
F1.0
sS'table'
p94
F0.49122807017543857
sS'enron'
p95
F1.736842105263158
sS'sending'
p96
F1.543859649122807
sS'voice'
p97
F0.9649122807017544
sS'ahead'
p98
F0.5263157894736842
sS'ot'
p99
F0.24561403508771928
sS'receive'
p100
F1.3859649122807018
sS'items'
p101
F0.8596491228070176
sS'k'
p102
F1.0
sS'marcos'
p103
F0.40350877192982454
sS'35'
p104
F0.8771929824561403
sS'---------------------------'
p105
F12.298245614035087
sS'prior'
p106
F1.0
sS'amount'
p107
F0.5263157894736842
sS'survey'
p108
F1.0
sS'paying'
p109
F0.3684210526315789
sS'#column'
p110
F2.0
sS'pick'
p111
F0.7719298245614035
sS'real'
p112
F0.21052631578947367
sS'opinion'
p113
F0.2631578947368421
sS'studies'
p114
F0.10526315789473684
sS'im-denver'
p115
F0.05263157894736842
sS'pmphillip'
p116
F0.9122807017543859
sS'secure'
p117
F0.10526315789473684
sS'family'
p118
F0.21052631578947367
sS'serialize'
p119
F2.0
sS'reagan'
p120
F0.3684210526315789
sS'private'
p121
F1.4912280701754386
sS'order'
p122
F0.017543859649122806
sS'put'
p123
F0.9824561403508771
sS'names'
p124
F2.192982456140351
sS'apply'
p125
F0.7017543859649122
sS'gonzalez'
p126
F1.4912280701754386
sS'allen_colleen'
p127
F1.0
sS'ngrams'
p128
F2.0
sS'kenne_262'
p129
F1.0
sS'andi'
p130
F0.8421052631578947
sS'reschedulechairperson'
p131
F1.0
sS'youphillip'
p132
F1.0
sS'beginning'
p133
F0.2982456140350877
sS'190\\/month'
p134
F0.7017543859649122
sS'eb2537'
p135
F1.0
sS'live'
p136
F0.017543859649122806
sS'bike'
p137
F0.43859649122807015
sS'call'
p138
F7.666666666666667
sS'staff'
p139
F0.017543859649122806
sS'6'
p140
F2.263157894736842
sS'stage'
p141
F0.08771929824561403
sS'until'
p142
F1.0
sS'today'
p143
F3.3333333333333335
sS'mm'
p144
F0.3684210526315789
sS'``'
p145
F1.6666666666666667
sS'relay'
p146
F1.0
sS'lavorato-mmike'
p147
F0.07017543859649122
sS'equity'
p148
F0.10526315789473684
sS'pollard_220'
p149
F1.0
sS'yahoo'
p150
F0.6842105263157895
sS'it'
p151
F2.789473684210526
sS'cuilla'
p152
F1.0
sS'phone'
p153
F2.508771929824561
sS'train'
p154
F2.0
sS'known'
p155
F0.10526315789473684
sS'expost'
p156
F0.42105263157894735
sS'________________________________________________________________________'
p157
F0.8421052631578947
sS'-2554'
p158
F0.07017543859649122
sS'account'
p159
F0.9298245614035088
sS'word'
p160
F6.491228070175438
sS'room'
p161
F2.1052631578947367
sS'this'
p162
F2.7017543859649122
sS'phillip'
p163
F32.98245614035088
sS'ride'
p164
F1.2105263157894737
sS'work'
p165
F2.789473684210526
sS'reviews'
p166
F1.0
sS'can'
p167
F7.052631578947368
sS'strategies'
p168
F1.0
sS'closing'
p169
F2.0
sS'1.40'
p170
F0.10526315789473684
sS'numbers'
p171
F0.543859649122807
sS'compare'
p172
F0.17543859649122806
sS'months'
p173
F0.7017543859649122
sS'prompt'
p174
F0.07017543859649122
sS'nursing'
p175
F0.7719298245614035
sS'give'
p176
F2.0
sS'approved'
p177
F0.21052631578947367
sS'westgateenclosed'
p178
F0.10526315789473684
sS'socal'
p179
F0.8245614035087719
sS'topic'
p180
F3.736842105263158
sS'03:13'
p181
F0.38596491228070173
sS'want'
p182
F2.017543859649123
sS'allen_suzanne'
p183
F1.0
sS'trailblazer'
p184
F0.3333333333333333
sS'information'
p185
F2.245614035087719
sS'needs'
p186
F1.6842105263157894
sS'end'
p187
F4.0
sS'martin-pjohn'
p188
F0.07017543859649122
sS'provide'
p189
F1.2105263157894737
sS'watching'
p190
F0.6842105263157895
sS'spreadsheet'
p191
F0.9649122807017544
sS'1'
p192
F4.0
sS'how'
p193
F1.0
sS'713\xc2\xa0646\xc2\xa02391'
p194
F1.0
sS'attachment'
p195
F1.543859649122807
sS'answer'
p196
F4.0
sS'mills\\/hou\\/ectruss'
p197
F1.0
sS'allen\\/hou\\/ectallan'
p198
F1.0
sS'truemaxleft'
p199
F2.0
sS'profile'
p200
F0.6491228070175439
sS'product'
p201
F0.5614035087719298
sS'description'
p202
F4.43859649122807
sS'attend'
p203
F1.9824561403508771
sS'ena'
p204
F1.0526315789473684
sS'allen_stagecoachmama_201'
p205
F1.0
sS'#some'
p206
F2.0
sS'resumes'
p207
F1.0
sS'1178'
p208
F0.5263157894736842
sS'per'
p209
F0.05263157894736842
sS'records'
p210
F0.5263157894736842
sS'date'
p211
F2.3684210526315788
sS'requirements'
p212
F0.10526315789473684
sS'martin/hou/ect@ectattached'
p213
F0.38596491228070173
sS'data'
p214
F0.3684210526315789
sS'response'
p215
F0.2982456140350877
sS'animationhave'
p216
F0.6666666666666666
sS'a'
p217
F0.38596491228070173
sS'short'
p218
F0.43859649122807015
sS'walters3-4783eb3299d'
p219
F0.05263157894736842
sS'remember'
p220
F1.087719298245614
sS'appreciate'
p221
F0.07017543859649122
sS'tholt-dscott'
p222
F0.07017543859649122
sS'2.7'
p223
F0.3684210526315789
sS'so'
p224
F0.07017543859649122
sS'pay'
p225
F0.8421052631578947
sS'nicholie_166'
p226
F1.0
sS'traders'
p227
F0.5614035087719298
sS'#location'
p228
F2.0
sS'02:32'
p229
F0.9122807017543859
sS'marcosthe'
p230
F0.10526315789473684
sS'help'
p231
F0.9649122807017544
sS'office'
p232
F1.8596491228070176
sS'enter'
p233
F0.5614035087719298
sS'september'
p234
F0.8245614035087719
sS'spreadsheets'
p235
F1.0
sS'notice_ywang_23'
p236
F1.0
sS'course'
p237
F1.0
sS'paper'
p238
F0.543859649122807
sS'including'
p239
F1.0
sS'looks'
p240
F2.3684210526315788
sS'committee'
p241
F1.0
sS'134'
p242
F0.10526315789473684
sS'allen_bs_stone_107'
p243
F1.0
sS'isimperative'
p244
F0.07017543859649122
sS'earlier'
p245
F0.10526315789473684
sS'write'
p246
F1.0
sS'group'
p247
F1.0
sS'thank'
p248
F3.1403508771929824
sS'brian'
p249
F0.03508771929824561
sS'300,000'
p250
F0.10526315789473684
sS'fix'
p251
F0.8421052631578947
sS'squarefoot'
p252
F0.10526315789473684
sS'rangel_114'
p253
F1.0
sS'29'
p254
F0.5263157894736842
sS'denver'
p255
F0.3333333333333333
sS'rangel_117'
p256
F1.0
sS'spoken'
p257
F1.0
sS'window'
p258
F0.10526315789473684
sS'reuters'
p259
F1.0
sS'systems'
p260
F1.0
sS'bridged'
p261
F0.05263157894736842
sS'listing'
p262
F1.0
sS'tsv'
p263
F34.0
sS'mail'
p264
F2.491228070175439
sS'happened'
p265
F0.9298245614035088
sS'then'
p266
F1.105263157894737
sS'good'
p267
F2.280701754385965
sS'demographics'
p268
F0.21052631578947367
sS'sever_185'
p269
F1.0
sS'origination'
p270
F1.1929824561403508
sS'hunter'
p271
F1.0
sS'dat'
p272
F0.10526315789473684
sS'2023phillip'
p273
F0.9824561403508771
sS'burchfieldsent'
p274
F1.0
sS'etringer09\\/11\\/2000'
p275
F0.9122807017543859
sS'they'
p276
F0.6666666666666666
sS'hands'
p277
F0.08771929824561403
sS'foot'
p278
F0.47368421052631576
sS'now'
p279
F0.2982456140350877
sS'investor'
p280
F0.21052631578947367
sS'discuss'
p281
F2.0
sS'bank'
p282
F1.8596491228070176
sS'easily'
p283
F0.07017543859649122
sS'x30681'
p284
F1.0
sS'document'
p285
F0.49122807017543857
sS'pmneal/hou/ect@ect,'
p286
F0.38596491228070173
sS'lucy'
p287
F3.210526315789474
sS'allen_jsmith_228'
p288
F1.0
sS'sturm\\/hou\\/ectscott'
p289
F1.0
sS'higher'
p290
F0.8421052631578947
sS'xls'
p291
F1.2982456140350878
sS'classifier'
p292
F2.0
sS'hillis/hou/ect@ect'
p293
F1.0
sS'5\\/hrs'
p294
F0.7017543859649122
sS'domain'
p295
F0.5614035087719298
sS'square'
p296
F0.47368421052631576
sS'financial'
p297
F0.05263157894736842
sS'significantly'
p298
F0.10526315789473684
sS'michael'
p299
F0.9122807017543859
sS'energy'
p300
F0.6666666666666666
sS'receipt'
p301
F0.49122807017543857
sS'idea'
p302
F1.0
sS'owner'
p303
F0.2631578947368421
sS'books'
p304
F0.3333333333333333
sS'trading'
p305
F0.9649122807017544
sS'donephillip'
p306
F1.0
sS'newprojects'
p307
F0.10526315789473684
sS'!!!!!'
p308
F1.0
sS'summary'
p309
F0.42105263157894735
sS'todo'
p310
F1.0
sS'event'
p311
F1.0701754385964912
sS'plans'
p312
F0.08771929824561403
sS'category'
p313
F1.1929824561403508
sS'deals'
p314
F0.42105263157894735
sS'matt'
p315
F1.0
sS'3-7857'
p316
F1.0
sS'http:\\/\\/ecthou-webcl1.nt.ect.enron.com\\/gas\\/'
p317
F0.03508771929824561
sS'george'
p318
F0.10526315789473684
sS'looking'
p319
F2.0
sS'messenger'
p320
F0.6842105263157895
sS'7'
p321
F0.8596491228070176
sS'internet'
p322
F0.07017543859649122
sS'got'
p323
F0.43859649122807015
sS'willknow'
p324
F0.10526315789473684
sS'correct'
p325
F3.0
sS'shows'
p326
F0.7017543859649122
sS'finephillip'
p327
F1.6140350877192982
sS'model'
p328
F0.3684210526315789
sS'lutz'
p329
F1.0
sS'581'
p330
F0.8596491228070176
sS'friday'
p331
F0.7017543859649122
sS'free'
p332
F4.228070175438597
sS'standard'
p333
F0.017543859649122806
sS'2.50'
p334
F0.10526315789473684
sS'california'
p335
F0.3508771929824561
sS'members'
p336
F1.1929824561403508
sS'conflicts'
p337
F1.0
sS'wordnomidngrams'
p338
F2.0
sS'thisproperty'
p339
F0.10526315789473684
sS'log'
p340
F0.543859649122807
sS'advance'
p341
F0.05263157894736842
sS'training'
p342
F2.0
sS'language'
p343
F1.0
sS'created'
p344
F0.3333333333333333
sS'days'
p345
F0.8421052631578947
sS'1438'
p346
F0.8596491228070176
sS'contacts_11'
p347
F1.0
sS'thing'
p348
F0.21052631578947367
sS'place'
p349
F1.0
sS'cicchettistart'
p350
F1.0
sS'TIME'
p351
F124.28070175438596
sS'repeats'
p352
F1.0
sS'think'
p353
F0.9122807017543859
sS'gaskill@enron08/04/2000'
p354
F0.38596491228070173
sS'features'
p355
F2.0
sS'ville'
p356
F0.3684210526315789
sS'feel'
p357
F2.736842105263158
sS'number'
p358
F0.15789473684210525
sS'pgt'
p359
F0.9824561403508771
sS'464labor'
p360
F0.8596491228070176
sS'directly'
p361
F0.07017543859649122
sS'95\\/month'
p362
F0.7017543859649122
sS'message'
p363
F0.43859649122807015
sS'open'
p364
F2.087719298245614
sS'tomorrow'
p365
F1.6842105263157894
sS'ser'
p366
F2.0
sS'management'
p367
F1.0
sS'checked'
p368
F0.5263157894736842
sS'guest'
p369
F1.0
sS'start'
p370
F0.07017543859649122
sS'sf'
p371
F0.3684210526315789
sS'detailing'
p372
F0.8245614035087719
sS'priority'
p373
F0.017543859649122806
sS'attach'
p374
F1.456140350877193
sS'station'
p375
F1.0
sS'neal/hou/ect@ect,'
p376
F1.0
sS'statement'
p377
F1.8596491228070176
sS'needto'
p378
F0.07017543859649122
sS'john'
p379
F1.0
sS'justifying'
p380
F0.3684210526315789
sS'selling'
p381
F0.47368421052631576
sS'aod_western'
p382
F1.0
sS'theability'
p383
F0.07017543859649122
sS'iwill'
p384
F0.8421052631578947
sS'completed'
p385
F0.07017543859649122
sS'delainey_102'
p386
F1.0
sS'rejected'
p387
F0.3684210526315789
sS'jane'
p388
F0.5614035087719298
sS'vouch'
p389
F0.017543859649122806
sS'regards'
p390
F1.0
sS'purposes'
p391
F0.017543859649122806
sS'copy'
p392
F1.0
sS'raters'
p393
F0.14035087719298245
sS'financing'
p394
F0.2631578947368421
sS'12'
p395
F1.4035087719298245
sS'bid'
p396
F0.7368421052631579
sS'holst-dfrank'
p397
F0.07017543859649122
sS'yates'
p398
F0.3684210526315789
sS'crumps'
p399
F0.8596491228070176
sS'transferred'
p400
F0.07017543859649122
sS'neal/hou/ect@ecti'
p401
F1.0
sS'christisent'
p402
F0.07017543859649122
sS'street'
p403
F0.10526315789473684
sS'supposed'
p404
F1.0
sS'rangel_145'
p405
F1.0
sS'ft-denver'
p406
F0.05263157894736842
sS'lease'
p407
F0.10526315789473684
sS'bev'
p408
F1.0
sS'pollard_211'
p409
F1.0
sS'notice\\/consent'
p410
F0.49122807017543857
sS'san'
p411
F0.40350877192982454
sS'westgate'
p412
F0.21052631578947367
sS'12\\/17please'
p413
F1.0
sS'roughly'
p414
F0.10526315789473684
sS'http:\\/\\/gasfundy.dev.corp.enron.com\\/chris'
p415
F0.38596491228070173
sS'buy'
p416
F0.017543859649122806
sS'rent'
p417
F1.631578947368421
sS'have'
p418
F0.9122807017543859
sS'need'
p419
F5.701754385964913
sS'seen'
p420
F0.6666666666666666
sS'sells'
p421
F0.8245614035087719
sS'#making'
p422
F2.0
sS'tells'
p423
F2.0
sS'sell'
p424
F1.0
sS'.31560'
p425
F1.736842105263158
sS'blanco'
p426
F0.5614035087719298
sS'winmail'
p427
F0.10526315789473684
sS'convenient'
p428
F0.543859649122807
sS'-'
p429
F6.526315789473684
sS'k.'
p430
F1.0
sS'client'
p431
F0.07017543859649122
sS'note'
p432
F3.473684210526316
sS'truewordshape'
p433
F2.0
sS'concerns'
p434
F1.5263157894736843
sS'take'
p435
F1.8596491228070176
sS'performance'
p436
F1.0
sS'similiar'
p437
F0.3684210526315789
sS'='
p438
F40.0
sS'2770here'
p439
F0.8596491228070176
sS'all'
p440
F0.24561403508771928
sS'sure'
p441
F0.5789473684210527
sS'normal'
p442
F0.5263157894736842
sS'price'
p443
F1.456140350877193
sS'measures'
p444
F1.0
sS'reach'
p445
F0.07017543859649122
sS'assoc'
p446
F0.9649122807017544
sS'plan'
p447
F4.2631578947368425
sS'kay'
p448
F2.0
sS'cap'
p449
F1.0
sS'payment'
p450
F1.5263157894736843
sS'westsan'
p451
F0.10526315789473684
sS'#that'
p452
F2.0
sS'chapmanarnold/hou/ect@ect,'
p453
F1.0
sS'2238'
p454
F1.0
sS'demand'
p455
F0.2982456140350877
sS'chris2uselc'
p456
F2.0
sS'actually'
p457
F0.3684210526315789
sS'later'
p458
F1.105263157894737
sS'request'
p459
F0.05263157894736842
sS'sale'
p460
F0.49122807017543857
sS'30c1'
p461
F1.0
sS'looked'
p462
F0.10526315789473684
sS'construction'
p463
F0.3684210526315789
sS'cannotemail'
p464
F0.07017543859649122
sS'mills/hou/ect@ect,'
p465
F1.0
sS'forsale'
p466
F0.10526315789473684
sS'hear'
p467
F0.6842105263157895
sS'left'
p468
F0.9649122807017544
sS'eb3321'
p469
F1.0
sS'trueusengrams'
p470
F2.0
sS'4303'
p471
F0.5263157894736842
sS'thomas'
p472
F0.38596491228070173
sS'selection'
p473
F0.14035087719298245
sS'brenda'
p474
F1.087719298245614
sS'show'
p475
F0.10526315789473684
sS'listed'
p476
F0.07017543859649122
sS'ralph'
p477
F0.8596491228070176
sS'unhedged'
p478
F0.3333333333333333
sS'bring'
p479
F0.42105263157894735
sS'rangel_218'
p480
F1.0
sS'trueusetypeysequences'
p481
F2.0
sS'tempted'
p482
F0.2631578947368421
sS'fine'
p483
F0.8421052631578947
sS'find'
p484
F0.6140350877192983
sS'feedback'
p485
F0.14035087719298245
sS'teamselection'
p486
F0.07017543859649122
sS'student'
p487
F0.10526315789473684
sS'6useprev'
p488
F2.0
sS'77845'
p489
F0.5263157894736842
sS'06:35:56'
p490
F0.10526315789473684
sS'3'
p491
F0.8596491228070176
sS'employer'
p492
F0.017543859649122806
sS'going'
p493
F1.4736842105263157
sS'#structure'
p494
F2.0
sS'money'
p495
F0.8596491228070176
sS'allen_cooper'
p496
F1.0
sS'columns'
p497
F0.9122807017543859
sS'info'
p498
F1.0526315789473684
sS'hotmail'
p499
F1.4912280701754386
sS'keeps'
p500
F0.42105263157894735
sS'get'
p501
F1.4912280701754386
sS'richey_153'
p502
F1.0
sS'de'
p503
F0.3684210526315789
sS'stop'
p504
F1.0
sS'soon'
p505
F2.526315789473684
sS'25,000'
p506
F0.3333333333333333
sS'http:\\/\\/ios.ets.enron.com\\/infopostings\\/shared\\/et_noncritical_notice.asp?company=60'
p507
F1.0
sS'allen_stagecoachmama_196'
p508
F1.0
sS'report'
p509
F1.1754385964912282
sS'allen_al'
p510
F2.0
sS'smallerserializeto'
p511
F2.0
sS'regarding'
p512
F2.0
sS'rangel_106'
p513
F1.0
sS'rangel_104'
p514
F1.0
sS'checks'
p515
F1.719298245614035
sS'highhi'
p516
F0.07017543859649122
sS'410'
p517
F0.17543859649122806
sS'scott'
p518
F1.0
sS'automatic'
p519
F0.07017543859649122
sS'inside'
p520
F0.08771929824561403
sS'wrote'
p521
F0.8596491228070176
sS'view'
p522
F0.5614035087719298
sS'respond'
p523
F0.43859649122807015
sS'requirement'
p524
F0.10526315789473684
sS'set'
p525
F1.9298245614035088
sS'trueuseword'
p526
F2.0
sS'fair'
p527
F0.7017543859649122
sS'w.'
p528
F0.10526315789473684
sS'we'
p529
F1.7543859649122806
sS'computer'
p530
F2.087719298245614
sS'college'
p531
F1.0
sS'are'
p532
F1.1228070175438596
sS'allen_stagecoachmama_130'
p533
F1.0
sS'close'
p534
F1.0
sS'extend'
p535
F0.5614035087719298
sS'#the'
p536
F2.0
sS'august'
p537
F0.8596491228070176
sS'project'
p538
F0.21052631578947367
sS'#'
p539
F3.0526315789473686
sS'http:\\/\\/ectpdx-sunone\\/~ctatham\\/navsetup\\/index.htmshould'
p540
F0.15789473684210525
sS'1map'
p541
F2.0
sS'managing'
p542
F0.24561403508771928
sS'pictures'
p543
F0.21052631578947367
sS'review'
p544
F1.0
sS'please'
p545
F10.842105263157896
sS'07\\/18\\/2000'
p546
F0.6666666666666666
sS'formwe'
p547
F0.07017543859649122
sS'written'
p548
F1.0
sS'3-7041thanks'
p549
F0.5614035087719298
sS'progress'
p550
F2.3859649122807016
sS'hold'
p551
F0.2807017543859649
sS'email'
p552
F11.140350877192983
sS'forward'
p553
F0.43859649122807015
sS'notice'
p554
F2.0
sS'jobs'
p555
F0.2631578947368421
sS'creating'
p556
F1.0
sS'do'
p557
F0.9473684210526315
sS'adding'
p558
F2.263157894736842
sS'sold'
p559
F0.3684210526315789
sS'attention'
p560
F0.07017543859649122
sS'sagewood'
p561
F0.10526315789473684
sS'allen_dawn'
p562
F1.0
sS'distinguish'
p563
F0.8245614035087719
sS'approval'
p564
F1.5263157894736843
sS'come'
p565
F0.6666666666666666
sS'valid'
p566
F0.017543859649122806
sS'received'
p567
F1.263157894736842
sS'smithproject'
p568
F0.07017543859649122
sS'programwe'
p569
F0.07017543859649122
sS'chelsea'
p570
F0.08771929824561403
sS'trades'
p571
F0.8245614035087719
sS'patti'
p572
F1.0
sS's'
p573
F2.0
sS'alot'
p574
F0.8421052631578947
sS'rose'
p575
F0.2982456140350877
sS'pate'
p576
F0.5263157894736842
sS'otherwise'
p577
F1.4385964912280702
sS'arnold-p'
p578
F0.07017543859649122
sS'collecting'
p579
F0.543859649122807
sS'1,140'
p580
F0.7017543859649122
sS'supply'
p581
F0.2982456140350877
sS'tori'
p582
F1.0
sS'loan'
p583
F0.7017543859649122
sS'2nd'
p584
F0.5263157894736842
sS'running'
p585
F0.017543859649122806
sS'richardspresident'
p586
F0.10526315789473684
sS'allen_cindy'
p587
F1.0
sS'corp.neal/hou/ect@ect,'
p588
F1.736842105263158
sS'trainfilelist'
p589
F2.0
sS'250'
p590
F0.2631578947368421
sS'#classifier'
p591
F2.0
sS'thedatabase'
p592
F0.07017543859649122
sS'1425'
p593
F0.8596491228070176
sS'west'
p594
F5.421052631578948
sS'create'
p595
F0.6491228070175439
sS'due'
p596
F1.0
sS'mark'
p597
F1.8245614035087718
sS'1308\\/1308'
p598
F0.3684210526315789
sS'production'
p599
F0.17543859649122806
sS'treat'
p600
F0.5263157894736842
sS'interest'
p601
F0.21052631578947367
sS'richards'
p602
F0.10526315789473684
sS'entered'
p603
F1.0
sS'meeting'
p604
F12.859649122807017
sS'location'
p605
F2.8421052631578947
sS'website'
p606
F0.15789473684210525
sS'mike'
p607
F1.0
sS'turned'
p608
F0.6842105263157895
sS'gas'
p609
F4.7368421052631575
sS'sales'
p610
F0.3684210526315789
sS'kids'
p611
F0.43859649122807015
sS'bidding'
p612
F0.3684210526315789
sS'\\/'
p613
F3.2982456140350878
sS'prices'
p614
F0.9649122807017544
sS'2537this'
p615
F1.0
sS'worked'
p616
F0.9298245614035088
sS'land'
p617
F0.21052631578947367
sS'sound'
p618
F0.7017543859649122
sS'rangel_223'
p619
F1.0
sS'eb30c1'
p620
F1.736842105263158
sS'replaces'
p621
F1.0
sS'look'
p622
F0.08771929824561403
sS'ermis-dsteve'
p623
F0.07017543859649122
sS'rangel_225'
p624
F1.0
sS'scrubbing'
p625
F0.3333333333333333
sS'sullivan_167'
p626
F1.0
sS'_________________________________________________________________________'
p627
F0.6491228070175439
sS'remaining'
p628
F0.10526315789473684
sS"n't"
p629
F2.7017543859649122
sS'evening'
p630
F0.08771929824561403
sS'moratorium'
p631
F0.10526315789473684
sS'b-day'
p632
F1.0
sS'situation'
p633
F0.017543859649122806
sS'property'
p634
F2.473684210526316
sS'shively-ptom'
p635
F0.07017543859649122
sS'scheduled'
p636
F3.0
sS'changed'
p637
F0.08771929824561403
sS'4085'
p638
F0.8596491228070176
sS'century'
p639
F0.7719298245614035
sS'allen_ina'
p640
F9.0
sS'canwe'
p641
F0.07017543859649122
sS'site'
p642
F4.491228070175438
sS'expenses'
p643
F0.543859649122807
sS'skipping'
p644
F0.6666666666666666
sS'asking'
p645
F0.47368421052631576
sS'reports'
p646
F0.03508771929824561
sS'allen_bs_stone_162'
p647
F1.0
sS'asap'
p648
F0.07017543859649122
sS'avg'
p649
F0.5614035087719298
sS'stickers'
p650
F0.017543859649122806
sS'id'
p651
F0.07017543859649122
sS'neal-phunter'
p652
F0.07017543859649122
sS'if'
p653
F6.666666666666667
sS'allen_muller_122'
p654
F1.0
sS'profiles.msn.com'
p655
F0.6491228070175439
sS'12\\/16'
p656
F1.0
sS'grant'
p657
F1.0
sS'things'
p658
F1.0
sS'make'
p659
F1.0
sS'administration'
p660
F0.07017543859649122
sS'trueusenext'
p661
F2.0
sS'highlighted'
p662
F0.9122807017543859
sS'3187'
p663
F0.8596491228070176
sS'buys'
p664
F0.8245614035087719
sS'units'
p665
F2.280701754385965
sS'stillrequire'
p666
F0.07017543859649122
sS'reminder'
p667
F1.0701754385964912
sS'physical'
p668
F0.6140350877192983
sS'showing'
p669
F0.543859649122807
sS'resources'
p670
F1.736842105263158
sS'severude\\/hou\\/ectscott'
p671
F1.0
sS'week'
p672
F2.8771929824561404
sS'care'
p673
F0.017543859649122806
sS'responses'
p674
F0.2982456140350877
sS'passwords'
p675
F0.42105263157894735
sS'psf'
p676
F0.10526315789473684
sS'reporting'
p677
F1.736842105263158
sS'duplexesand'
p678
F0.10526315789473684
sS'walmart'
p679
F1.719298245614035
sS'user'
p680
F1.0
sS'internal'
p681
F0.5614035087719298
sS'amortization'
p682
F1.0175438596491229
sS'opportunity'
p683
F0.10526315789473684
sS'3000\\/acre'
p684
F0.2631578947368421
sS'villa'
p685
F0.08771929824561403
sS'allen_stagecoachmama_173'
p686
F1.0
sS'allen_stagecoachmama_171'
p687
F1.0
sS'proceed'
p688
F0.5263157894736842
sS'allen_stagecoachmama_174'
p689
F1.0
sS'mention'
p690
F0.8421052631578947
sS'i'
p691
F36.175438596491226
sS'12-month'
p692
F0.21052631578947367
sS'spent'
p693
F0.8596491228070176
sS'without'
p694
F0.07017543859649122
sS'person'
p695
F0.14035087719298245
sS'materials'
p696
F0.8596491228070176
sS'does'
p697
F0.7017543859649122
sS'position'
p698
F0.3333333333333333
sS'headcount'
p699
F1.0
sS'1.25'
p700
F0.10526315789473684
sS'know'
p701
F3.6666666666666665
sS'newest'
p702
F1.0
sS'just'
p703
F0.9298245614035088
sS'storage'
p704
F1.0
sS'accurate'
p705
F1.0
sS'hoskins'
p706
F0.03508771929824561
sS'rest'
p707
F2.210526315789474
sS'reviewed'
p708
F0.38596491228070173
sS'shape'
p709
F2.7719298245614037
sS'shively\\/hou\\/ectphillip'
p710
F1.0
sS'thanks'
p711
F4.824561403508772
sS'questions'
p712
F3.526315789473684
sS'paul'
p713
F1.0526315789473684
sS'ng'
p714
F0.5614035087719298
sS'injuries'
p715
F0.7719298245614035
sS'web'
p716
F1.0
sS'$'
p717
F3.8596491228070176
sS'cherry'
p718
F0.3684210526315789
sS'tw-on'
p719
F1.0
sS'drive'
p720
F0.08771929824561403
sS'smith'
p721
F0.07017543859649122
sS'day'
p722
F4.105263157894737
sS'serviceskeilty'
p723
F0.07017543859649122
sS'add'
p724
F2.1228070175438596
sS'spread'
p725
F0.7017543859649122
sS'4'
p726
F2.8596491228070176
sS'cash'
p727
F0.5087719298245614
sS'input'
p728
F2.0
sS'save'
p729
F2.0
sS'administrative'
p730
F0.5614035087719298
sS'ca'
p731
F0.22807017543859648
sS'featuresusetypeseqs'
p732
F2.0
sS'manage'
p733
F0.5614035087719298
sS'increased'
p734
F0.2982456140350877
sS'emergency'
p735
F1.0
sS'format'
p736
F0.543859649122807
sS'checking'
p737
F0.9298245614035088
sS'grigsby'
p738
F1.0
sS'credit'
p739
F0.017543859649122806
sS'calendars'
p740
F2.0
sS'term'
p741
F1.087719298245614
sS'several'
p742
F0.10526315789473684
sS'allen_jeff'
p743
F1.0
sS'rangel_182'
p744
F1.0
sS'desk'
p745
F2.4035087719298245
sS'trueusedisjunctive'
p746
F2.0
sS'password'
p747
F1.0350877192982457
sS'severude/hou/ect@ect,'
p748
F1.0
sS'pmskipping'
p749
F0.6666666666666666
sS'sincerely'
p750
F0.10526315789473684
sS'53'
p751
F0.8596491228070176
sS'l.'
p752
F0.07017543859649122
sS'harrison/na/enron@enronjackson/corp/enron@enron'
p753
F1.0
sS'grigsby-dkeith'
p754
F0.07017543859649122
sS'sparse'
p755
F1.1929824561403508
sS'martin'
p756
F1.0
sS'1410'
p757
F0.8596491228070176
sS'#no'
p758
F2.0
sS'security'
p759
F0.42105263157894735
sS'1416'
p760
F0.8596491228070176
sS'creek'
p761
F0.3684210526315789
sS'deal'
p762
F3.4210526315789473
sS'apartments'
p763
F1.4736842105263157
sS'yourattention'
p764
F1.0
sS'trueusesequences'
p765
F2.0
sS'back'
p766
F2.789473684210526
sS'competition'
p767
F0.3684210526315789
sS'understood'
p768
F0.017543859649122806
sS'tholt'
p769
F0.5614035087719298
sS'burnet'
p770
F2.1052631578947367
sS'development'
p771
F0.10526315789473684
sS'thereis'
p772
F0.10526315789473684
sS'transport'
p773
F1.5614035087719298
sS'total'
p774
F0.7017543859649122
sS'confirm'
p775
F0.49122807017543857
sS'noon'
p776
F0.543859649122807
sS'4801services'
p777
F0.8596491228070176
sS'overlap'
p778
F0.9122807017543859
sS'when'
p779
F1.0
sS'continue'
p780
F1.0
sS'unit'
p781
F3.543859649122807
sS'haveto'
p782
F0.8421052631578947
sS'booking'
p783
F0.3333333333333333
sS'inserting'
p784
F0.07017543859649122
sS'.70'
p785
F0.3684210526315789
sS'power'
p786
F1.0
sS'schedule'
p787
F1.368421052631579
sS'expansion'
p788
F0.2631578947368421
sS'leased'
p789
F0.21052631578947367
sS'market'
p790
F0.2982456140350877
sS'nerfeaturefactoryuseclassfeature'
p791
F2.0
sS'1411'
p792
F0.8596491228070176
sS'10\\/hr'
p793
F0.7017543859649122
sS'vs.'
p794
F0.8245614035087719
sS'takes'
p795
F0.8421052631578947
sS'payout'
p796
F1.4035087719298245
sS'on'
p797
F1.0
sS'stone'
p798
F1.3333333333333333
sS'37031'
p799
F1.0
sS'getting'
p800
F1.1403508771929824
sS'column'
p801
F2.0
sS'industry'
p802
F0.6666666666666666
sS'allen_kathy'
p803
F1.0
sS'discussed'
p804
F2.0
sS'truck'
p805
F0.017543859649122806
sS'side'
p806
F1.1929824561403508
sS"'d"
p807
F2.0
sS'plus'
p808
F0.7719298245614035
sS'afternoon'
p809
F2.0
sS'1428'
p810
F0.8596491228070176
sS'luck'
p811
F0.43859649122807015
sS'tenants'
p812
F0.9473684210526315
sS'book'
p813
F0.10526315789473684
sS'2929'
p814
F0.8596491228070176
sS'referenced'
p815
F1.0
sS'statements'
p816
F1.0
sS'decreased'
p817
F0.2982456140350877
sS'el'
p818
F0.5614035087719298
sS'office303-575-6490'
p819
F1.0
sS'physical\\/financail'
p820
F1.0
sS'balances'
p821
F0.7017543859649122
sS'ththe'
p822
F0.8421052631578947
sS'chris'
p823
F0.38596491228070173
sS'accounts'
p824
F0.9122807017543859
sS'hubert'
p825
F0.3333333333333333
sS'gary'
p826
F0.8421052631578947
sS'wade'
p827
F1.7719298245614035
sS'your'
p828
F2.192982456140351
sS'utility'
p829
F1.2982456140350878
sS'america'
p830
F2.3508771929824563
sS'van'
p831
F0.8421052631578947
sS'achance'
p832
F0.8421052631578947
sS'msn'
p833
F1.4912280701754386
sS'completing'
p834
F0.07017543859649122
sS'support'
p835
F0.8596491228070176
sS'there'
p836
F2.719298245614035
sS'question'
p837
F0.10526315789473684
sS'long'
p838
F0.9824561403508771
sS'why'
p839
F0.8596491228070176
sS'overtime'
p840
F0.8596491228070176
sS'http:\\/\\/www.hotmail.com'
p841
F0.8421052631578947
sS'south-djanie'
p842
F0.07017543859649122
sS'var'
p843
F1.736842105263158
sS'severson\\/hou\\/ectdetailed'
p844
F1.0
sS'happy'
p845
F1.087719298245614
sS'rightsthanks'
p846
F1.0
sS'hard'
p847
F0.3684210526315789
sS'north'
p848
F1.736842105263158
sS'complete'
p849
F0.14035087719298245
sS'form'
p850
F1.0175438596491229
sS'offer'
p851
F0.2631578947368421
sS'neal\\/hou\\/ecthunter'
p852
F1.0
sS'vehicle'
p853
F0.017543859649122806
sS'but'
p854
F0.17543859649122806
sS'allan'
p855
F1.0
sS'company858\\/450'
p856
F0.07017543859649122
sS'3428'
p857
F0.8596491228070176
sS'pmdescription'
p858
F1.0
sS'prepayments'
p859
F0.49122807017543857
sS'filed'
p860
F1.0
sS'alliance'
p861
F0.21052631578947367
sS'-lrb-'
p862
F6.771929824561403
sS'true'
p863
F2.0
sS'analyst'
p864
F2.4210526315789473
sS'he'
p865
F0.24561403508771928
sS'shively/hou/ect@ect,'
p866
F1.0
sS'pull'
p867
F1.8596491228070176
sS'tossed'
p868
F1.0
sS'notyet'
p869
F0.10526315789473684
sS'vacancies'
p870
F0.9298245614035088
sS'attached'
p871
F2.263157894736842
sS'signed'
p872
F1.0
sS'record'
p873
F1.0350877192982457
sS'2'
p874
F0.8596491228070176
sS'west-wideprice'
p875
F1.0
sS'distribution'
p876
F1.0
sS'similar'
p877
F0.10526315789473684
sS'assistance'
p878
F0.14035087719298245
sS'expect'
p879
F1.0
sS'phil'
p880
F0.05263157894736842
sS'-rrb-'
p881
F6.771929824561403
sS'truemaxngramleng'
p882
F2.0
sS'allen_jsmith_129'
p883
F1.0
sS"''"
p884
F1.6666666666666667
sS'#these'
p885
F2.0
sS'associates'
p886
F0.45614035087719296
sS'at'
p887
F0.3684210526315789
sS'check'
p888
F6.350877192982456
sS'as'
p889
F2.5789473684210527
sS'fill'
p890
F1.912280701754386
sS"'ll"
p891
F1.0
sS'ideally'
p892
F0.07017543859649122
sS'variety'
p893
F0.3684210526315789
sS'amounts'
p894
F1.0
sS'refax'
p895
F1.0
sS'individual'
p896
F0.10526315789473684
sS'excel'
p897
F1.631578947368421
sS'detail'
p898
F2.719298245614035
sS'lately'
p899
F0.6666666666666666
sS'setting'
p900
F0.43859649122807015
sS'5'
p901
F0.8596491228070176
sS'details'
p902
F1.5263157894736843
sS'holding'
p903
F1.0
sS'income'
p904
F0.017543859649122806
sS'department'
p905
F0.05263157894736842
sS'additional'
p906
F0.49122807017543857
sS'you'
p907
F3.912280701754386
sS'roll'
p908
F1.087719298245614
sS'requested'
p909
F1.0
sS"'s"
p910
F7.43859649122807
sS'2005'
p911
F0.3333333333333333
sS'utilities'
p912
F0.17543859649122806
sS'faxed'
p913
F1.0
sS'lunch'
p914
F0.7719298245614035
sS'included'
p915
F2.0
sS"'m"
p916
F0.7719298245614035
sS'weekend'
p917
F1.2982456140350878
sS'needed'
p918
F0.21052631578947367
sS'haveeach'
p919
F0.07017543859649122
sS'booked'
p920
F0.08771929824561403
sS'allen_bruce'
p921
F1.0
sS'studio'
p922
F0.43859649122807015
sS'faster'
p923
F2.0
sS'vehicles'
p924
F0.017543859649122806
sS'athttp'
p925
F0.6491228070175439
sS'daily'
p926
F3.0
sS'eol'
p927
F1.6666666666666667
sS'2002'
p928
F0.3333333333333333
sS'2003'
p929
F0.3333333333333333
sS'2000'
p930
F0.17543859649122806
sS'housing'
p931
F0.10526315789473684
sS'2004'
p932
F0.3333333333333333
sS'time'
p933
F1.280701754385965
sS'allen_david'
p934
F1.0
sS'starting'
p935
F1.0
sS'parcels'
p936
F0.10526315789473684
s.