(dp0
S'outlining'
p1
F0.14814814814814814
sS'office'
p2
F0.8888888888888888
sS'when'
p3
F0.4074074074074074
sS'accurate'
p4
F1.0
sS'#understood'
p5
F0.5925925925925926
sS'gz'
p6
F1.1851851851851851
sS'allen_stagecoachmama_196'
p7
F0.5925925925925926
sS'west-wideprice'
p8
F0.14814814814814814
sS'course'
p9
F0.7407407407407407
sS'shape'
p10
F0.5925925925925926
sS'including'
p11
F0.14814814814814814
sS'thanks'
p12
F0.7407407407407407
sS'trueuseword'
p13
F0.5925925925925926
sS'allen_bs_stone_107'
p14
F0.5925925925925926
sS'rest'
p15
F0.5925925925925926
sS'write'
p16
F1.0
sS'group'
p17
F0.25925925925925924
sS'thank'
p18
F1.5555555555555556
sS'6useprev'
p19
F0.5925925925925926
sS'yourattention'
p20
F0.14814814814814814
sS'send'
p21
F1.6296296296296295
sS'rangel_117'
p22
F0.5925925925925926
sS'ngrams'
p23
F0.5925925925925926
sS'0'
p24
F1.1851851851851851
sS'add'
p25
F0.8148148148148148
sS'reuters'
p26
F0.037037037037037035
sS'#structure'
p27
F0.5925925925925926
sS'severude/hou/ect@ect,'
p28
F0.7777777777777778
sS'tsv'
p29
F14.222222222222221
sS'input'
p30
F1.8518518518518519
sS'save'
p31
F0.5925925925925926
sS'allen_cooper'
p32
F0.5925925925925926
sS'details'
p33
F0.5555555555555556
sS'scheduled'
p34
F0.7777777777777778
sS'then'
p35
F0.8518518518518519
sS'fax'
p36
F0.9259259259259259
sS'good'
p37
F0.4074074074074074
sS'emergency'
p38
F0.14814814814814814
sS'sever_185'
p39
F0.5925925925925926
sS'grigsby'
p40
F0.8148148148148148
sS'cicchetti_115'
p41
F0.5925925925925926
sS'calendars'
p42
F0.7777777777777778
sS'spreadsheets'
p43
F0.4444444444444444
sS'allen_jeff'
p44
F0.5925925925925926
sS'know'
p45
F1.037037037037037
sS'report'
p46
F0.14814814814814814
sS'trueusedisjunctive'
p47
F0.5925925925925926
sS'password'
p48
F0.8888888888888888
sS'discuss'
p49
F0.6296296296296297
sS'bank'
p50
F0.9259259259259259
sS'smallerserializeto'
p51
F0.5925925925925926
sS'regarding'
p52
F0.8888888888888888
sS'allen_jsmith_228'
p53
F0.5925925925925926
sS'correct'
p54
F1.5925925925925926
sS'PERSON'
p55
F22.444444444444443
sS'continue'
p56
F0.6666666666666666
sS'follow'
p57
F0.4074074074074074
sS'trueusetypeysequences'
p58
F0.5925925925925926
sS'#no'
p59
F0.5925925925925926
sS'classifier'
p60
F0.5925925925925926
sS'allen_cindy'
p61
F0.5925925925925926
sS'gzips'
p62
F0.5925925925925926
sS'andothers'
p63
F0.14814814814814814
sS'rents'
p64
F0.8518518518518519
sS'deal'
p65
F0.5925925925925926
sS'tells'
p66
F0.5925925925925926
sS'trueusesequences'
p67
F0.5925925925925926
sS'back'
p68
F0.8518518518518519
sS'sign'
p69
F0.7407407407407407
sS'computer'
p70
F1.0
sS'college'
p71
F0.9629629629629629
sS'donephillip'
p72
F0.37037037037037035
sS'allen_stagecoachmama_130'
p73
F0.5925925925925926
sS'pass'
p74
F0.8888888888888888
sS'close'
p75
F0.4444444444444444
sS'brenda'
p76
F0.4074074074074074
sS'estimated'
p77
F0.4074074074074074
sS'todo'
p78
F0.5925925925925926
sS'paul'
p79
F0.48148148148148145
sS"n't"
p80
F1.3333333333333333
sS'#'
p81
F1.1111111111111112
sS'attachment'
p82
F0.37037037037037035
sS'#that'
p83
F0.5925925925925926
sS'richter_245'
p84
F0.5925925925925926
sS'please'
p85
F4.185185185185185
sS'4'
p86
F0.5925925925925926
sS'looking'
p87
F0.5925925925925926
sS'written'
p88
F0.3333333333333333
sS'progress'
p89
F0.8888888888888888
sS'ferrell_169'
p90
F0.5925925925925926
sS'email'
p91
F4.62962962962963
sS'supposed'
p92
F0.4074074074074074
sS'finephillip'
p93
F0.5555555555555556
sS'subdivided'
p94
F0.3333333333333333
sS'we'
p95
F0.4444444444444444
sS'measures'
p96
F0.14814814814814814
sS'creating'
p97
F0.4444444444444444
sS'power'
p98
F0.25925925925925924
sS'adding'
p99
F0.5925925925925926
sS'word'
p100
F1.7777777777777777
sS'allen_stephanie'
p101
F0.5925925925925926
sS'allen_dawn'
p102
F0.5925925925925926
sS'let'
p103
F1.4074074074074074
sS'nerfeaturefactoryuseclassfeature'
p104
F0.5925925925925926
sS'address'
p105
F0.9629629629629629
sS'moore_123'
p106
F0.5925925925925926
sS'approval'
p107
F0.3333333333333333
sS'wordnomidngrams'
p108
F0.5925925925925926
sS'closing'
p109
F0.7407407407407407
sS'on'
p110
F0.8148148148148148
sS'training'
p111
F0.5925925925925926
sS'37031'
p112
F0.8888888888888888
sS'language'
p113
F0.4074074074074074
sS'column'
p114
F0.5925925925925926
sS'allen_stagecoachmama_174'
p115
F0.5925925925925926
sS'allen_kathy'
p116
F0.5925925925925926
sS'discussed'
p117
F0.5925925925925926
sS'patti'
p118
F0.8148148148148148
sS'---------------------------'
p119
F0.7777777777777778
sS'prior'
p120
F0.5555555555555556
sS'#the'
p121
F0.5925925925925926
sS"'d"
p122
F0.5925925925925926
sS'place'
p123
F0.7777777777777778
sS'afternoon'
p124
F0.7407407407407407
sS'eb2537'
p125
F0.7777777777777778
sS'TIME'
p126
F16.814814814814813
sS'pollard_220'
p127
F0.5925925925925926
sS'plan'
p128
F0.8888888888888888
sS'referenced'
p129
F0.7777777777777778
sS'statements'
p130
F0.3333333333333333
sS'features'
p131
F0.5925925925925926
sS'spoken'
p132
F0.4074074074074074
sS'serialize'
p133
F0.5925925925925926
sS'price'
p134
F0.5925925925925926
sS'date'
p135
F0.4074074074074074
sS'set'
p136
F0.037037037037037035
sS'truemaxleft'
p137
F0.5925925925925926
sS'names'
p138
F0.8518518518518519
sS'trainfilelist'
p139
F0.5925925925925926
sS'#classifier'
p140
F0.5925925925925926
sS'open'
p141
F0.8518518518518519
sS'allen_colleen'
p142
F0.5925925925925926
sS'featuresusetypeseqs'
p143
F0.5925925925925926
sS'idea'
p144
F0.8148148148148148
sS'trueuseprevsequences'
p145
F0.5925925925925926
sS'kenne_262'
p146
F0.5925925925925926
sS'guest'
p147
F0.8888888888888888
sS'youphillip'
p148
F0.8888888888888888
sS'west'
p149
F0.25925925925925924
sS'give'
p150
F0.8148148148148148
sS'due'
p151
F0.8518518518518519
sS'review'
p152
F0.3333333333333333
sS'attach'
p153
F0.4444444444444444
sS'station'
p154
F0.9629629629629629
sS'call'
p155
F0.8888888888888888
sS'statement'
p156
F0.9259259259259259
sS'trueusetypeseqs2'
p157
F0.5925925925925926
sS'entered'
p158
F0.7777777777777778
sS'meeting'
p159
F1.3333333333333333
sS'looks'
p160
F0.4074074074074074
sS'today'
p161
F1.2592592592592593
sS'happy'
p162
F0.7037037037037037
sS'mike'
p163
F0.8148148148148148
sS'aod_western'
p164
F0.5925925925925926
sS'relay'
p165
F0.8888888888888888
sS'received'
p166
F0.6666666666666666
sS'gas'
p167
F1.7777777777777777
sS'allan'
p168
F0.7777777777777778
sS'phone'
p169
F0.7037037037037037
sS'train'
p170
F0.5925925925925926
sS'mail'
p171
F0.6296296296296297
sS'-lrb-'
p172
F0.5925925925925926
sS'#beginning'
p173
F0.5925925925925926
sS'copy'
p174
F1.0
sS'true'
p175
F0.5925925925925926
sS'analyst'
p176
F0.25925925925925924
sS'remember'
p177
F0.3333333333333333
sS'tossed'
p178
F0.6296296296296297
sS'room'
p179
F0.7777777777777778
sS'ser'
p180
F0.5925925925925926
sS'rangel_225'
p181
F0.5925925925925926
sS'phillip'
p182
F13.62962962962963
sS'work'
p183
F0.37037037037037035
sS'allen_muller_122'
p184
F0.5925925925925926
sS'signed'
p185
F0.7407407407407407
sS'neal/hou/ect@ecti'
p186
F0.7777777777777778
sS'receive'
p187
F0.4074074074074074
sS'soon'
p188
F0.48148148148148145
sS'can'
p189
F2.740740740740741
sS'b-day'
p190
F0.7037037037037037
sS'site'
p191
F0.5925925925925926
sS'allen_al'
p192
F0.5925925925925926
sS'distribution'
p193
F0.8148148148148148
sS'property'
p194
F0.6666666666666666
sS'rightsthanks'
p195
F0.48148148148148145
sS'expect'
p196
F0.14814814814814814
sS'stop'
p197
F0.037037037037037035
sS'allen_bs_stone_162'
p198
F0.5925925925925926
sS'-rrb-'
p199
F0.5925925925925926
sS'truemaxngramleng'
p200
F0.5925925925925926
sS'allen_ina'
p201
F1.1851851851851851
sS'it'
p202
F1.2222222222222223
sS'allen_jsmith_129'
p203
F0.5925925925925926
sS'topic'
p204
F0.7777777777777778
sS'#these'
p205
F0.5925925925925926
sS'allen_bruce'
p206
F0.5925925925925926
sS'richey_153'
p207
F0.5925925925925926
sS'rent'
p208
F1.0
sS'want'
p209
F1.4444444444444444
sS'need'
p210
F1.7407407407407407
sS'contacts_11'
p211
F0.5925925925925926
sS'allen_suzanne'
p212
F0.5925925925925926
sS'check'
p213
F0.6296296296296297
sS'as'
p214
F0.14814814814814814
sS'fill'
p215
F1.0
sS'sell'
p216
F0.3333333333333333
sS'information'
p217
F0.8888888888888888
sS'#making'
p218
F0.5925925925925926
sS'end'
p219
F1.1851851851851851
sS'grant'
p220
F0.48148148148148145
sS'amounts'
p221
F1.0
sS'refax'
p222
F0.9259259259259259
sS'make'
p223
F0.4444444444444444
sS'sending'
p224
F0.14814814814814814
sS'excel'
p225
F0.8518518518518519
sS'access'
p226
F0.25925925925925924
sS'trueusenext'
p227
F0.5925925925925926
sS'note'
p228
F0.8148148148148148
sS'how'
p229
F0.4444444444444444
sS'truewordshape'
p230
F0.5925925925925926
sS'concerns'
p231
F0.3333333333333333
sS'713\xc2\xa0646\xc2\xa02391'
p232
F0.9259259259259259
sS'take'
p233
F0.7777777777777778
sS'holding'
p234
F0.8148148148148148
sS'sullivan_167'
p235
F0.5925925925925926
sS'answer'
p236
F1.1851851851851851
sS'survey'
p237
F0.5925925925925926
sS'you'
p238
F1.4444444444444444
sS'if'
p239
F0.6296296296296297
sS'='
p240
F11.851851851851851
sS'roll'
p241
F1.0
sS'week'
p242
F1.4074074074074074
sS'requested'
p243
F0.48148148148148145
sS"'s"
p244
F1.037037037037037
sS'#column'
p245
F0.5925925925925926
sS'burnet'
p246
F0.3333333333333333
sS'allen_stagecoachmama_201'
p247
F0.5925925925925926
sS'#some'
p248
F0.5925925925925926
sS'lutz'
p249
F0.4074074074074074
sS'what'
p250
F0.5555555555555556
sS'faxed'
p251
F1.0
sS'user'
p252
F0.8888888888888888
sS'matt'
p253
F0.4074074074074074
sS'included'
p254
F0.5925925925925926
sS"'ll"
p255
F0.14814814814814814
sS'cap'
p256
F0.14814814814814814
sS'payment'
p257
F0.6296296296296297
sS'1map'
p258
F0.5925925925925926
sS'allen_stagecoachmama_173'
p259
F0.5925925925925926
sS'allen_stagecoachmama_171'
p260
F0.5925925925925926
sS'faster'
p261
F0.5925925925925926
sS'chris2uselc'
p262
F0.5925925925925926
sS'i'
p263
F11.074074074074074
sS'later'
p264
F0.4444444444444444
sS'daily'
p265
F2.4444444444444446
sS'eol'
p266
F0.48148148148148145
sS'provide'
p267
F0.5555555555555556
sS'filed'
p268
F0.14814814814814814
sS'1'
p269
F1.1851851851851851
sS'mills/hou/ect@ect,'
p270
F0.7777777777777778
sS'things'
p271
F0.18518518518518517
sS'headcount'
p272
F0.5555555555555556
sS'otherwise'
p273
F0.5555555555555556
sS'nicholie_166'
p274
F0.5925925925925926
sS'trueusengrams'
p275
F0.5925925925925926
sS'#location'
p276
F0.5925925925925926
s.