(dp0
S'approv'
p1
F1.3333333333333333
sS'month'
p2
F2.6666666666666665
sS'neuner'
p3
F0.6666666666666666
sS'follow'
p4
F1.0
sS'thank'
p5
F1.0
sS'contractor'
p6
F0.3333333333333333
sS'offic'
p7
F1.0
sS'busi'
p8
F1.0
sS'board'
p9
F1.0
sS'versus'
p10
F0.3333333333333333
sS'brown'
p11
F0.3333333333333333
sS'marco'
p12
F1.0
sS'mention'
p13
F2.0
sS'they'
p14
F0.3333333333333333
sS'him'
p15
F0.3333333333333333
sS'apart'
p16
F1.0
sS'did'
p17
F1.0
sS'factori'
p18
F0.6666666666666666
sS'assume'
p19
F0.3333333333333333
sS'pleas'
p20
F2.3333333333333335
sS'fair'
p21
F1.0
sS'citygate-daili'
p22
F0.6666666666666666
sS'expect'
p23
F0.6666666666666666
sS'distributor'
p24
F0.3333333333333333
sS'excit'
p25
F0.3333333333333333
sS'index'
p26
F3.3333333333333335
sS'confirm'
p27
F0.3333333333333333
sS'estim'
p28
F0.3333333333333333
sS'email'
p29
F1.3333333333333333
sS'accord'
p30
F0.3333333333333333
sS'full'
p31
F1.0
sS'believ'
p32
F0.3333333333333333
sS'key'
p33
F1.0
sS'advisor'
p34
F1.0
sS'panel'
p35
F0.3333333333333333
sS'pg&e'
p36
F1.3333333333333333
sS'region'
p37
F0.3333333333333333
sS'bom'
p38
F2.6666666666666665
sS'keystone-month'
p39
F0.6666666666666666
sS'speak'
p40
F1.3333333333333333
sS'kipp'
p41
F0.3333333333333333
sS'messag'
p42
F1.0
sS'custom'
p43
F0.6666666666666666
sS'border-daili'
p44
F0.6666666666666666
sS'call'
p45
F1.0
sS'interest'
p46
F1.0
sS'forward'
p47
F0.6666666666666666
sS'buy'
p48
F0.3333333333333333
sS'direct'
p49
F0.6666666666666666
sS'socal'
p50
F0.6666666666666666
sS'true'
p51
F0.3333333333333333
sS'sound'
p52
F1.0
sS'look'
p53
F1.0
sS'flore'
p54
F0.3333333333333333
sS'phillip'
p55
F2.0
sS'prepar'
p56
F0.3333333333333333
sS'work'
p57
F0.6666666666666666
sS'up'
p58
F1.0
sS'project'
p59
F1.0
sS'i'
p60
F4.666666666666667
sS'architect'
p61
F0.3333333333333333
sS'can'
p62
F0.3333333333333333
sS'are'
p63
F1.0
sS'purchas'
p64
F0.3333333333333333
sS'san'
p65
F1.3333333333333333
sS'plate'
p66
F1.0
sS'site'
p67
F0.3333333333333333
sS'topock-daili'
p68
F0.6666666666666666
sS'general'
p69
F0.3333333333333333
sS'as'
p70
F1.0
sS'johnni'
p71
F1.0
sS'allen'
p72
F1.3333333333333333
sS'if'
p73
F0.3333333333333333
sS'author'
p74
F0.6666666666666666
sS'receiv'
p75
F1.0
sS'pay'
p76
F0.3333333333333333
sS'you'
p77
F1.0
sS'dale'
p78
F0.6666666666666666
sS'product'
p79
F1.0
sS'price'
p80
F0.3333333333333333
sS'plan'
p81
F0.3333333333333333
sS'physic'
p82
F8.666666666666666
sS'malin-daili'
p83
F0.6666666666666666
sS'well'
p84
F0.3333333333333333
sS'antonio'
p85
F0.3333333333333333
sS'issu'
p86
F1.0
sS'inform'
p87
F1.0
sS'potenti'
p88
F0.3333333333333333
sS'time'
p89
F0.3333333333333333
sS'left'
p90
F1.0
s.